target datalayout = "e-m:e-p270:32:32-p271:32:32-p272:64:64-i64:64-i128:128-f80:128-n8:16:32:64-S128"
target triple = "x86_64-pc-linux-gnu"

%struct.MinMaxLen = type { i32, i32 }
%struct.OptAnc = type { i32, i32 }
%struct.OptStr = type { %struct.MinMaxLen, %struct.OptAnc, i32, i32, [24 x i8] }
%struct.OnigEncodingTypeST = type { ptr, ptr, i32, i32, ptr, ptr, ptr, ptr, ptr, ptr, ptr, ptr, ptr, ptr, ptr, ptr, ptr, ptr, ptr, i32, i32, i32 }

; Function Attrs: nounwind uwtable
define internal i32 @distance_value(ptr noundef %0) #0 {
  %2 = alloca i32, align 4
  %3 = alloca ptr, align 8
  %4 = alloca i32, align 4
  %5 = alloca i32, align 4
  store ptr %0, ptr %3, align 8, !tbaa !15
  call void @llvm.lifetime.start.p0(i64 4, ptr %4) #9
  %6 = load ptr, ptr %3, align 8, !tbaa !15
  %7 = getelementptr inbounds nuw %struct.MinMaxLen, ptr %6, i32 0, i32 1
  %8 = load i32, ptr %7, align 4, !tbaa !273
  %9 = icmp eq i32 %8, -1
  br i1 %9, label %10, label %11

10:                                               ; preds = %1
  store i32 0, ptr %2, align 4
  store i32 1, ptr %5, align 4
  br label %28

11:                                               ; preds = %1
  %12 = load ptr, ptr %3, align 8, !tbaa !15
  %13 = getelementptr inbounds nuw %struct.MinMaxLen, ptr %12, i32 0, i32 1
  %14 = load i32, ptr %13, align 4, !tbaa !273
  %15 = load ptr, ptr %3, align 8, !tbaa !15
  %16 = getelementptr inbounds nuw %struct.MinMaxLen, ptr %15, i32 0, i32 0
  %17 = load i32, ptr %16, align 4, !tbaa !274
  %18 = sub i32 %14, %17
  store i32 %18, ptr %4, align 4, !tbaa !4
  %19 = load i32, ptr %4, align 4, !tbaa !4
  %20 = icmp ult i32 %19, 100
  br i1 %20, label %21, label %27

21:                                               ; preds = %11
  %22 = load i32, ptr %4, align 4, !tbaa !4
  %23 = zext i32 %22 to i64
  %24 = getelementptr inbounds nuw [100 x i16], ptr @distance_value.dist_vals, i64 0, i64 %23
  %25 = load i16, ptr %24, align 2, !tbaa !316
  %26 = sext i16 %25 to i32
  store i32 %26, ptr %2, align 4
  store i32 1, ptr %5, align 4
  br label %28

27:                                               ; preds = %11
  store i32 1, ptr %2, align 4
  store i32 1, ptr %5, align 4
  br label %28

28:                                               ; preds = %27, %21, %10
  call void @llvm.lifetime.end.p0(i64 4, ptr %4) #9
  %29 = load i32, ptr %2, align 4
  ret i32 %29
}

; Function Attrs: nounwind uwtable
define internal i32 @comp_distance_value(ptr noundef %0, ptr noundef %1, i32 noundef %2, i32 noundef %3) #0 {
  %5 = alloca i32, align 4
  %6 = alloca ptr, align 8
  %7 = alloca ptr, align 8
  %8 = alloca i32, align 4
  %9 = alloca i32, align 4
  store ptr %0, ptr %6, align 8, !tbaa !15
  store ptr %1, ptr %7, align 8, !tbaa !15
  store i32 %2, ptr %8, align 4, !tbaa !4
  store i32 %3, ptr %9, align 4, !tbaa !4
  %10 = load i32, ptr %9, align 4, !tbaa !4
  %11 = icmp sle i32 %10, 0
  br i1 %11, label %12, label %13

12:                                               ; preds = %4
  store i32 -1, ptr %5, align 4
  br label %54

13:                                               ; preds = %4
  %14 = load i32, ptr %8, align 4, !tbaa !4
  %15 = icmp sle i32 %14, 0
  br i1 %15, label %16, label %17

16:                                               ; preds = %13
  store i32 1, ptr %5, align 4
  br label %54

17:                                               ; preds = %13
  %18 = load ptr, ptr %6, align 8, !tbaa !15
  %19 = call i32 @distance_value(ptr noundef %18)
  %20 = load i32, ptr %8, align 4, !tbaa !4
  %21 = mul nsw i32 %20, %19
  store i32 %21, ptr %8, align 4, !tbaa !4
  %22 = load ptr, ptr %7, align 8, !tbaa !15
  %23 = call i32 @distance_value(ptr noundef %22)
  %24 = load i32, ptr %9, align 4, !tbaa !4
  %25 = mul nsw i32 %24, %23
  store i32 %25, ptr %9, align 4, !tbaa !4
  %26 = load i32, ptr %9, align 4, !tbaa !4
  %27 = load i32, ptr %8, align 4, !tbaa !4
  %28 = icmp sgt i32 %26, %27
  br i1 %28, label %29, label %30

29:                                               ; preds = %17
  store i32 1, ptr %5, align 4
  br label %54

30:                                               ; preds = %17
  %31 = load i32, ptr %9, align 4, !tbaa !4
  %32 = load i32, ptr %8, align 4, !tbaa !4
  %33 = icmp slt i32 %31, %32
  br i1 %33, label %34, label %35

34:                                               ; preds = %30
  store i32 -1, ptr %5, align 4
  br label %54

35:                                               ; preds = %30
  %36 = load ptr, ptr %7, align 8, !tbaa !15
  %37 = getelementptr inbounds nuw %struct.MinMaxLen, ptr %36, i32 0, i32 0
  %38 = load i32, ptr %37, align 4, !tbaa !274
  %39 = load ptr, ptr %6, align 8, !tbaa !15
  %40 = getelementptr inbounds nuw %struct.MinMaxLen, ptr %39, i32 0, i32 0
  %41 = load i32, ptr %40, align 4, !tbaa !274
  %42 = icmp ult i32 %38, %41
  br i1 %42, label %43, label %44

43:                                               ; preds = %35
  store i32 1, ptr %5, align 4
  br label %54

44:                                               ; preds = %35
  %45 = load ptr, ptr %7, align 8, !tbaa !15
  %46 = getelementptr inbounds nuw %struct.MinMaxLen, ptr %45, i32 0, i32 0
  %47 = load i32, ptr %46, align 4, !tbaa !274
  %48 = load ptr, ptr %6, align 8, !tbaa !15
  %49 = getelementptr inbounds nuw %struct.MinMaxLen, ptr %48, i32 0, i32 0
  %50 = load i32, ptr %49, align 4, !tbaa !274
  %51 = icmp ugt i32 %47, %50
  br i1 %51, label %52, label %53

52:                                               ; preds = %44
  store i32 -1, ptr %5, align 4
  br label %54

53:                                               ; preds = %44
  store i32 0, ptr %5, align 4
  br label %54

54:                                               ; preds = %53, %52, %43, %34, %29, %16, %12
  %55 = load i32, ptr %5, align 4
  ret i32 %55
}

; Function Attrs: nounwind uwtable
define internal i32 @map_position_value(ptr noundef %0, i32 noundef %1) #0 {
  %3 = alloca i32, align 4
  %4 = alloca ptr, align 8
  %5 = alloca i32, align 4
  store ptr %0, ptr %4, align 8, !tbaa !115
  store i32 %1, ptr %5, align 4, !tbaa !4
  %6 = load i32, ptr %5, align 4, !tbaa !4
  %7 = icmp slt i32 %6, 128
  br i1 %7, label %8, label %23

8:                                                ; preds = %2
  %9 = load i32, ptr %5, align 4, !tbaa !4
  %10 = icmp eq i32 %9, 0
  br i1 %10, label %11, label %17

11:                                               ; preds = %8
  %12 = load ptr, ptr %4, align 8, !tbaa !115
  %13 = getelementptr inbounds nuw %struct.OnigEncodingTypeST, ptr %12, i32 0, i32 3
  %14 = load i32, ptr %13, align 4, !tbaa !137
  %15 = icmp sgt i32 %14, 1
  br i1 %15, label %16, label %17

16:                                               ; preds = %11
  store i32 20, ptr %3, align 4
  br label %24

17:                                               ; preds = %11, %8
  %18 = load i32, ptr %5, align 4, !tbaa !4
  %19 = sext i32 %18 to i64
  %20 = getelementptr inbounds [128 x i16], ptr @map_position_value.Vals, i64 0, i64 %19
  %21 = load i16, ptr %20, align 2, !tbaa !316
  %22 = sext i16 %21 to i32
  store i32 %22, ptr %3, align 4
  br label %24

23:                                               ; preds = %2
  store i32 4, ptr %3, align 4
  br label %24

24:                                               ; preds = %23, %17, %16
  %25 = load i32, ptr %3, align 4
  ret i32 %25
}

; Function Attrs: nounwind uwtable
define internal void @copy_opt_exact(ptr noundef %0, ptr noundef %1) #0 {
  %3 = alloca ptr, align 8
  %4 = alloca ptr, align 8
  store ptr %0, ptr %3, align 8, !tbaa !15
  store ptr %1, ptr %4, align 8, !tbaa !15
  %5 = load ptr, ptr %3, align 8, !tbaa !15
  %6 = load ptr, ptr %4, align 8, !tbaa !15
  call void @llvm.memcpy.p0.p0.i64(ptr align 4 %5, ptr align 4 %6, i64 48, i1 false), !tbaa.struct !308
  ret void
}

; Function Attrs: nounwind uwtable
define internal void @select_opt_exact(ptr noundef %0, ptr noundef %1, ptr noundef %2) #0 {
  %4 = alloca ptr, align 8
  %5 = alloca ptr, align 8
  %6 = alloca ptr, align 8
  %7 = alloca i32, align 4
  %8 = alloca i32, align 4
  %9 = alloca i32, align 4
  store ptr %0, ptr %4, align 8, !tbaa !115
  store ptr %1, ptr %5, align 8, !tbaa !15
  store ptr %2, ptr %6, align 8, !tbaa !15
  call void @llvm.lifetime.start.p0(i64 4, ptr %7) #9
  call void @llvm.lifetime.start.p0(i64 4, ptr %8) #9
  %10 = load ptr, ptr %5, align 8, !tbaa !15
  %11 = getelementptr inbounds nuw %struct.OptStr, ptr %10, i32 0, i32 3
  %12 = load i32, ptr %11, align 4, !tbaa !289
  store i32 %12, ptr %7, align 4, !tbaa !4
  %13 = load ptr, ptr %6, align 8, !tbaa !15
  %14 = getelementptr inbounds nuw %struct.OptStr, ptr %13, i32 0, i32 3
  %15 = load i32, ptr %14, align 4, !tbaa !289
  store i32 %15, ptr %8, align 4, !tbaa !4
  %16 = load i32, ptr %8, align 4, !tbaa !4
  %17 = icmp eq i32 %16, 0
  br i1 %17, label %18, label %19

18:                                               ; preds = %3
  store i32 1, ptr %9, align 4
  br label %81

19:                                               ; preds = %3
  %20 = load i32, ptr %7, align 4, !tbaa !4
  %21 = icmp eq i32 %20, 0
  br i1 %21, label %22, label %25

22:                                               ; preds = %19
  %23 = load ptr, ptr %5, align 8, !tbaa !15
  %24 = load ptr, ptr %6, align 8, !tbaa !15
  call void @copy_opt_exact(ptr noundef %23, ptr noundef %24)
  store i32 1, ptr %9, align 4
  br label %81

25:                                               ; preds = %19
  %26 = load i32, ptr %7, align 4, !tbaa !4
  %27 = icmp sle i32 %26, 2
  br i1 %27, label %28, label %62

28:                                               ; preds = %25
  %29 = load i32, ptr %8, align 4, !tbaa !4
  %30 = icmp sle i32 %29, 2
  br i1 %30, label %31, label %62

31:                                               ; preds = %28
  %32 = load ptr, ptr %4, align 8, !tbaa !115
  %33 = load ptr, ptr %5, align 8, !tbaa !15
  %34 = getelementptr inbounds nuw %struct.OptStr, ptr %33, i32 0, i32 4
  %35 = getelementptr inbounds [24 x i8], ptr %34, i64 0, i64 0
  %36 = load i8, ptr %35, align 4, !tbaa !32
  %37 = zext i8 %36 to i32
  %38 = call i32 @map_position_value(ptr noundef %32, i32 noundef %37)
  store i32 %38, ptr %8, align 4, !tbaa !4
  %39 = load ptr, ptr %4, align 8, !tbaa !115
  %40 = load ptr, ptr %6, align 8, !tbaa !15
  %41 = getelementptr inbounds nuw %struct.OptStr, ptr %40, i32 0, i32 4
  %42 = getelementptr inbounds [24 x i8], ptr %41, i64 0, i64 0
  %43 = load i8, ptr %42, align 4, !tbaa !32
  %44 = zext i8 %43 to i32
  %45 = call i32 @map_position_value(ptr noundef %39, i32 noundef %44)
  store i32 %45, ptr %7, align 4, !tbaa !4
  %46 = load ptr, ptr %5, align 8, !tbaa !15
  %47 = getelementptr inbounds nuw %struct.OptStr, ptr %46, i32 0, i32 3
  %48 = load i32, ptr %47, align 4, !tbaa !289
  %49 = icmp sgt i32 %48, 1
  br i1 %49, label %50, label %53

50:                                               ; preds = %31
  %51 = load i32, ptr %7, align 4, !tbaa !4
  %52 = add nsw i32 %51, 5
  store i32 %52, ptr %7, align 4, !tbaa !4
  br label %53

53:                                               ; preds = %50, %31
  %54 = load ptr, ptr %6, align 8, !tbaa !15
  %55 = getelementptr inbounds nuw %struct.OptStr, ptr %54, i32 0, i32 3
  %56 = load i32, ptr %55, align 4, !tbaa !289
  %57 = icmp sgt i32 %56, 1
  br i1 %57, label %58, label %61

58:                                               ; preds = %53
  %59 = load i32, ptr %8, align 4, !tbaa !4
  %60 = add nsw i32 %59, 5
  store i32 %60, ptr %8, align 4, !tbaa !4
  br label %61

61:                                               ; preds = %58, %53
  br label %62

62:                                               ; preds = %61, %28, %25
  br label %63

63:                                               ; preds = %62
  br label %64

64:                                               ; preds = %63
  %65 = load i32, ptr %7, align 4, !tbaa !4
  %66 = mul nsw i32 %65, 2
  store i32 %66, ptr %7, align 4, !tbaa !4
  %67 = load i32, ptr %8, align 4, !tbaa !4
  %68 = mul nsw i32 %67, 2
  store i32 %68, ptr %8, align 4, !tbaa !4
  %69 = load ptr, ptr %5, align 8, !tbaa !15
  %70 = getelementptr inbounds nuw %struct.OptStr, ptr %69, i32 0, i32 0
  %71 = load ptr, ptr %6, align 8, !tbaa !15
  %72 = getelementptr inbounds nuw %struct.OptStr, ptr %71, i32 0, i32 0
  %73 = load i32, ptr %7, align 4, !tbaa !4
  %74 = load i32, ptr %8, align 4, !tbaa !4
  %75 = call i32 @comp_distance_value(ptr noundef %70, ptr noundef %72, i32 noundef %73, i32 noundef %74)
  %76 = icmp sgt i32 %75, 0
  br i1 %76, label %77, label %80

77:                                               ; preds = %64
  %78 = load ptr, ptr %5, align 8, !tbaa !15
  %79 = load ptr, ptr %6, align 8, !tbaa !15
  call void @copy_opt_exact(ptr noundef %78, ptr noundef %79)
  br label %80

80:                                               ; preds = %77, %64
  store i32 0, ptr %9, align 4
  br label %81

81:                                               ; preds = %80, %22, %18
  call void @llvm.lifetime.end.p0(i64 4, ptr %8) #9
  call void @llvm.lifetime.end.p0(i64 4, ptr %7) #9
  %82 = load i32, ptr %9, align 4
  switch i32 %82, label %84 [
    i32 0, label %83
    i32 1, label %83
  ]

83:                                               ; preds = %81, %81
  ret void

84:                                               ; preds = %81
  unreachable
}