; Function Attrs: mustprogress nofree norecurse nosync nounwind willreturn memory(argmem: readwrite) uwtable
define internal fastcc void @select_opt_exact(ptr noundef readonly captures(none) %0, ptr noundef nonnull captures(none) %1, ptr noundef nonnull readonly captures(none) %2) unnamed_addr #19 {
  %4 = getelementptr inbounds nuw i8, ptr %1, i64 20
  %5 = load i32, ptr %4, align 4, !tbaa !70
  %6 = getelementptr inbounds nuw i8, ptr %2, i64 20
  %7 = load i32, ptr %6, align 4, !tbaa !70
  %8 = icmp eq i32 %7, 0
  br i1 %8, label %comp_distance_value.exit, label %9

9:                                                ; preds = %3
  %10 = icmp eq i32 %5, 0
  br i1 %10, label %comp_distance_value.exit.sink.split, label %11

11:                                               ; preds = %9
  %12 = icmp slt i32 %5, 3
  %13 = icmp slt i32 %7, 3
  %or.cond = and i1 %12, %13
  br i1 %or.cond, label %14, label %47

14:                                               ; preds = %11
  %15 = getelementptr inbounds nuw i8, ptr %1, i64 24
  %16 = load i8, ptr %15, align 4, !tbaa !20
  %17 = icmp sgt i8 %16, -1
  br i1 %17, label %18, label %map_position_value.exit

18:                                               ; preds = %14
  %19 = icmp eq i8 %16, 0
  br i1 %19, label %20, label %24

20:                                               ; preds = %18
  %21 = getelementptr inbounds nuw i8, ptr %0, i64 20
  %22 = load i32, ptr %21, align 4, !tbaa !66
  %23 = icmp sgt i32 %22, 1
  br i1 %23, label %map_position_value.exit, label %24

24:                                               ; preds = %20, %18
  %25 = zext nneg i8 %16 to i64
  %26 = getelementptr inbounds nuw [128 x i16], ptr @map_position_value.Vals, i64 0, i64 %25
  %27 = load i16, ptr %26, align 2, !tbaa !68
  %28 = sext i16 %27 to i32
  br label %map_position_value.exit

map_position_value.exit:                          ; preds = %14, %20, %24
  %.0.i = phi i32 [ %28, %24 ], [ 20, %20 ], [ 4, %14 ]
  %29 = getelementptr inbounds nuw i8, ptr %2, i64 24
  %30 = load i8, ptr %29, align 4, !tbaa !20
  %31 = icmp sgt i8 %30, -1
  br i1 %31, label %32, label %map_position_value.exit29

32:                                               ; preds = %map_position_value.exit
  %33 = icmp eq i8 %30, 0
  br i1 %33, label %34, label %38

34:                                               ; preds = %32
  %35 = getelementptr inbounds nuw i8, ptr %0, i64 20
  %36 = load i32, ptr %35, align 4, !tbaa !66
  %37 = icmp sgt i32 %36, 1
  br i1 %37, label %map_position_value.exit29, label %38

38:                                               ; preds = %34, %32
  %39 = zext nneg i8 %30 to i64
  %40 = getelementptr inbounds nuw [128 x i16], ptr @map_position_value.Vals, i64 0, i64 %39
  %41 = load i16, ptr %40, align 2, !tbaa !68
  %42 = sext i16 %41 to i32
  br label %map_position_value.exit29

map_position_value.exit29:                        ; preds = %map_position_value.exit, %34, %38
  %.0.i28 = phi i32 [ %42, %38 ], [ 20, %34 ], [ 4, %map_position_value.exit ]
  %43 = icmp sgt i32 %5, 1
  %44 = add nsw i32 %.0.i28, 5
  %spec.select = select i1 %43, i32 %44, i32 %.0.i28
  %45 = icmp sgt i32 %7, 1
  %46 = add nsw i32 %.0.i, 5
  %spec.select27 = select i1 %45, i32 %46, i32 %.0.i
  br label %47

47:                                               ; preds = %map_position_value.exit29, %11
  %.1 = phi i32 [ %5, %11 ], [ %spec.select, %map_position_value.exit29 ]
  %.0 = phi i32 [ %7, %11 ], [ %spec.select27, %map_position_value.exit29 ]
  %48 = shl nsw i32 %.1, 1
  %49 = shl nsw i32 %.0, 1
  %50 = icmp slt i32 %.0, 1
  br i1 %50, label %comp_distance_value.exit, label %51

51:                                               ; preds = %47
  %52 = icmp slt i32 %.1, 1
  br i1 %52, label %comp_distance_value.exit.sink.split, label %53

53:                                               ; preds = %51
  %54 = getelementptr inbounds nuw i8, ptr %1, i64 4
  %55 = load i32, ptr %54, align 4, !tbaa !53
  %56 = icmp eq i32 %55, -1
  br i1 %56, label %distance_value.exit.i, label %57

57:                                               ; preds = %53
  %58 = load i32, ptr %1, align 4, !tbaa !54
  %59 = sub i32 %55, %58
  %60 = icmp ult i32 %59, 100
  br i1 %60, label %61, label %distance_value.exit.i

61:                                               ; preds = %57
  %62 = zext nneg i32 %59 to i64
  %63 = getelementptr inbounds nuw [100 x i16], ptr @distance_value.dist_vals, i64 0, i64 %62
  %64 = load i16, ptr %63, align 2, !tbaa !68
  %65 = sext i16 %64 to i32
  br label %distance_value.exit.i

distance_value.exit.i:                            ; preds = %61, %57, %53
  %.0.i.i = phi i32 [ %65, %61 ], [ 0, %53 ], [ 1, %57 ]
  %66 = mul nsw i32 %.0.i.i, %48
  %67 = getelementptr inbounds nuw i8, ptr %2, i64 4
  %68 = load i32, ptr %67, align 4, !tbaa !53
  %69 = icmp eq i32 %68, -1
  br i1 %69, label %distance_value.exit21.i, label %70

70:                                               ; preds = %distance_value.exit.i
  %71 = load i32, ptr %2, align 4, !tbaa !54
  %72 = sub i32 %68, %71
  %73 = icmp ult i32 %72, 100
  br i1 %73, label %74, label %distance_value.exit21.i

74:                                               ; preds = %70
  %75 = zext nneg i32 %72 to i64
  %76 = getelementptr inbounds nuw [100 x i16], ptr @distance_value.dist_vals, i64 0, i64 %75
  %77 = load i16, ptr %76, align 2, !tbaa !68
  %78 = sext i16 %77 to i32
  br label %distance_value.exit21.i

distance_value.exit21.i:                          ; preds = %74, %70, %distance_value.exit.i
  %.0.i20.i = phi i32 [ %78, %74 ], [ 0, %distance_value.exit.i ], [ 1, %70 ]
  %79 = mul nsw i32 %.0.i20.i, %49
  %80 = icmp sgt i32 %79, %66
  br i1 %80, label %comp_distance_value.exit.sink.split, label %81

81:                                               ; preds = %distance_value.exit21.i
  %82 = icmp slt i32 %79, %66
  br i1 %82, label %comp_distance_value.exit, label %83

83:                                               ; preds = %81
  %84 = load i32, ptr %2, align 4, !tbaa !54
  %85 = load i32, ptr %1, align 4, !tbaa !54
  %86 = icmp ult i32 %84, %85
  br i1 %86, label %comp_distance_value.exit.sink.split, label %comp_distance_value.exit

comp_distance_value.exit.sink.split:              ; preds = %83, %distance_value.exit21.i, %51, %9
  tail call void @llvm.memcpy.p0.p0.i64(ptr noundef nonnull align 4 dereferenceable(48) %1, ptr noundef nonnull readonly align 4 dereferenceable(48) %2, i64 48, i1 false)
  br label %comp_distance_value.exit

comp_distance_value.exit:                         ; preds = %comp_distance_value.exit.sink.split, %83, %81, %47, %3
  ret void
}